target datalayout = "e-m:e-p270:32:32-p271:32:32-p272:64:64-i64:64-i128:128-f80:128-n8:16:32:64-S128"
target triple = "x86_64-pc-linux-gnu"

%struct.BEValue = type { i8, i32, ptr, ptr, ptr }

; Function Attrs: nounwind uwtable
define dso_local void @llvm_value_set_address(ptr noundef %0, ptr noundef %1, ptr noundef %2, i32 noundef %3) #0 {
  %5 = alloca ptr, align 8
  %6 = alloca ptr, align 8
  %7 = alloca ptr, align 8
  %8 = alloca i32, align 4
  store ptr %0, ptr %5, align 8
  store ptr %1, ptr %6, align 8
  store ptr %2, ptr %7, align 8
  store i32 %3, ptr %8, align 4
  %9 = load ptr, ptr %6, align 8
  %10 = load ptr, ptr %5, align 8
  %11 = getelementptr inbounds %struct.BEValue, ptr %10, i32 0, i32 3
  store ptr %9, ptr %11, align 8
  %12 = load i32, ptr %8, align 4
  %13 = load ptr, ptr %5, align 8
  %14 = getelementptr inbounds %struct.BEValue, ptr %13, i32 0, i32 1
  store i32 %12, ptr %14, align 4
  %15 = load ptr, ptr %5, align 8
  %16 = load i8, ptr %15, align 8
  %17 = and i8 %16, -32
  %18 = or i8 %17, 1
  store i8 %18, ptr %15, align 8
  %19 = load ptr, ptr %7, align 8
  %20 = call ptr @type_lowering(ptr noundef %19)
  %21 = load ptr, ptr %5, align 8
  %22 = getelementptr inbounds %struct.BEValue, ptr %21, i32 0, i32 2
  store ptr %20, ptr %22, align 8
  ret void
}