; Function Attrs: nounwind uwtable
define dso_local void @llvm_value_set_address(ptr noundef captures(none) initializes((4, 24)) %0, ptr noundef %1, ptr noundef readonly captures(none) %2, i32 noundef %3) local_unnamed_addr #0 {
  %5 = getelementptr inbounds nuw i8, ptr %0, i64 16
  store ptr %1, ptr %5, align 8
  %6 = getelementptr inbounds nuw i8, ptr %0, i64 4
  store i32 %3, ptr %6, align 4
  %7 = load i8, ptr %0, align 8
  %8 = and i8 %7, -32
  %9 = or disjoint i8 %8, 1
  store i8 %9, ptr %0, align 8
  %10 = tail call fastcc ptr @type_lowering(ptr noundef %2)
  %11 = getelementptr inbounds nuw i8, ptr %0, i64 8
  store ptr %10, ptr %11, align 8
  ret void
}